; ModuleID = 'source-C-CXX/55/1294.c'
source_filename = "source-C-CXX/55/1294.c"
target datalayout = "e-m:e-p270:32:32-p271:32:32-p272:64:64-i64:64-f80:128-n8:16:32:64-S128"
target triple = "x86_64-pc-linux-gnu"

@.str = private unnamed_addr constant [3 x i8] c"%d\00", align 1

; Function Attrs: nofree nounwind sspstrong uwtable
define dso_local i32 @main() local_unnamed_addr #0 {
  %1 = alloca i32, align 4
  %2 = bitcast i32* %1 to i8*
  call void @llvm.lifetime.start.p0i8(i64 4, i8* nonnull %2) #3
  %3 = call i32 (i8*, ...) @__isoc99_scanf(i8* getelementptr inbounds ([3 x i8], [3 x i8]* @.str, i64 0, i64 0), i32* nonnull %1)
  %4 = load i32, i32* %1, align 4, !tbaa !5
  %5 = sdiv i32 %4, 10000
  %6 = sdiv i32 %4, 1000
  %7 = mul nsw i32 %5, -10
  %8 = add nsw i32 %7, %6
  %9 = sdiv i32 %4, 100
  %10 = mul nsw i32 %5, -100
  %11 = add nsw i32 %10, %9
  %12 = mul nsw i32 %8, 10
  %13 = sub nsw i32 %11, %12
  %14 = srem i32 %4, 10
  %15 = srem i32 %4, 100
  %16 = sub nsw i32 %15, %14
  %17 = trunc i32 %16 to i8
  %18 = sdiv i8 %17, 10
  %19 = sext i8 %18 to i32
  %20 = add i32 %4, 9999
  %21 = icmp ult i32 %20, 19999
  br i1 %21, label %30, label %22

22:                                               ; preds = %0
  %23 = mul nsw i32 %14, 10000
  %24 = mul nsw i32 %19, 1000
  %25 = mul nsw i32 %13, 100
  %26 = add nsw i32 %23, %5
  %27 = add nsw i32 %26, %12
  %28 = add nsw i32 %27, %24
  %29 = add i32 %28, %25
  br label %46

30:                                               ; preds = %0
  %31 = icmp eq i32 %8, 0
  br i1 %31, label %39, label %32

32:                                               ; preds = %30
  %33 = mul nsw i32 %14, 1000
  %34 = mul nsw i32 %19, 100
  %35 = mul nsw i32 %13, 10
  %36 = add nsw i32 %8, %33
  %37 = add nsw i32 %36, %34
  %38 = add nsw i32 %37, %35
  br label %46

39:                                               ; preds = %30
  %40 = icmp eq i32 %13, 0
  br i1 %40, label %46, label %41

41:                                               ; preds = %39
  %42 = mul nsw i32 %14, 100
  %43 = mul nsw i32 %19, 10
  %44 = add nsw i32 %13, %42
  %45 = add nsw i32 %44, %43
  br label %46

46:                                               ; preds = %39, %32, %41, %22
  %47 = phi i32 [ %29, %22 ], [ %38, %32 ], [ %45, %41 ], [ %14, %39 ]
  %48 = call i32 (i8*, ...) @printf(i8* nonnull dereferenceable(1) getelementptr inbounds ([3 x i8], [3 x i8]* @.str, i64 0, i64 0), i32 %47)
  call void @llvm.lifetime.end.p0i8(i64 4, i8* nonnull %2) #3
  ret i32 0
}

; Function Attrs: argmemonly mustprogress nofree nosync nounwind willreturn
declare void @llvm.lifetime.start.p0i8(i64 immarg, i8* nocapture) #1

; Function Attrs: nofree nounwind
declare noundef i32 @__isoc99_scanf(i8* nocapture noundef readonly, ...) local_unnamed_addr #2

; Function Attrs: nofree nounwind
declare noundef i32 @printf(i8* nocapture noundef readonly, ...) local_unnamed_addr #2

; Function Attrs: argmemonly mustprogress nofree nosync nounwind willreturn
declare void @llvm.lifetime.end.p0i8(i64 immarg, i8* nocapture) #1


!llvm.module.flags = !{!0, !1, !2, !3}
!llvm.ident = !{!4}

!0 = !{i32 1, !"wchar_size", i32 4}
!1 = !{i32 7, !"PIC Level", i32 2}
!2 = !{i32 7, !"PIE Level", i32 2}
!3 = !{i32 7, !"uwtable", i32 1}
!4 = !{!"clang version 13.0.0"}
!5 = !{!6, !6, i64 0}
!6 = !{!"int", !7, i64 0}
!7 = !{!"omnipotent char", !8, i64 0}
!8 = !{!"Simple C/C++ TBAA"}
